; Function Attrs: mustprogress nofree norecurse nosync nounwind willreturn memory(none) uwtable
define hidden noundef nonnull ptr @_ZN4cvc58internal8toStringENS0_12TypeConstantE(i32 noundef %tc) local_unnamed_addr #0 {
entry:
  %0 = icmp ult i32 %tc, 11
  br i1 %0, label %switch.lookup, label %return

switch.lookup:                                    ; preds = %entry
  %1 = zext nneg i32 %tc to i64
  %switch.gep = getelementptr inbounds [11 x ptr], ptr @switch.table._ZN4cvc58internallsERSoNS0_12TypeConstantE, i64 0, i64 %1
  %switch.load = load ptr, ptr %switch.gep, align 8
  br label %return

return:                                           ; preds = %entry, %switch.lookup
  %retval.0 = phi ptr [ %switch.load, %switch.lookup ], [ @.str.379, %entry ]
  ret ptr %retval.0
}